; Function Attrs: nounwind uwtable
define dso_local void @ensure_full_index(ptr noundef %0) local_unnamed_addr #0 {
  %.not = icmp eq ptr %0, null
  br i1 %.not, label %2, label %3

2:                                                ; preds = %1
  tail call void (ptr, i32, ptr, ...) @BUG_fl(ptr noundef nonnull @.str.5, i32 noundef 461, ptr noundef nonnull @.str.13) #14
  unreachable

3:                                                ; preds = %1
  tail call void @expand_index(ptr noundef nonnull %0, ptr noundef null)
  ret void
}